target datalayout = "e-m:e-p270:32:32-p271:32:32-p272:64:64-i64:64-i128:128-f80:128-n8:16:32:64-S128"
target triple = "x86_64-pc-linux-gnu"

%struct.CodedBitstreamFragment = type { ptr, i64, i64, ptr, i32, i32, ptr }
%struct.CodedBitstreamUnit = type { i32, ptr, i64, i64, ptr, ptr, ptr }

@.str.1 = private unnamed_addr constant [30 x i8] c"Assertion %s failed at %s:%d\0A\00", align 1
@.str.3 = private unnamed_addr constant [17 x i8] c"libavcodec/cbs.c\00", align 1
@.str.21 = private unnamed_addr constant [44 x i8] c"position >= 0 && position <= frag->nb_units\00", align 1

; Function Attrs: nounwind uwtable
define i32 @ff_cbs_insert_unit_content(ptr noundef %0, i32 noundef %1, i32 noundef %2, ptr noundef %3, ptr noundef %4) #3 {
  %6 = alloca i32, align 4
  %7 = alloca ptr, align 8
  %8 = alloca i32, align 4
  %9 = alloca i32, align 4
  %10 = alloca ptr, align 8
  %11 = alloca ptr, align 8
  %12 = alloca ptr, align 8
  %13 = alloca i32, align 4
  %14 = alloca i32, align 4
  store ptr %0, ptr %7, align 8, !tbaa !39
  store i32 %1, ptr %8, align 4, !tbaa !10
  store i32 %2, ptr %9, align 4, !tbaa !10
  store ptr %3, ptr %10, align 8, !tbaa !12
  store ptr %4, ptr %11, align 8, !tbaa !12
  call void @llvm.lifetime.start.p0(i64 8, ptr %12) #13
  call void @llvm.lifetime.start.p0(i64 4, ptr %13) #13
  %15 = load i32, ptr %8, align 4, !tbaa !10
  %16 = icmp eq i32 %15, -1
  br i1 %16, label %17, label %21

17:                                               ; preds = %5
  %18 = load ptr, ptr %7, align 8, !tbaa !39
  %19 = getelementptr inbounds nuw %struct.CodedBitstreamFragment, ptr %18, i32 0, i32 4
  %20 = load i32, ptr %19, align 8, !tbaa !41
  store i32 %20, ptr %8, align 4, !tbaa !10
  br label %21

21:                                               ; preds = %17, %5
  br label %22

22:                                               ; preds = %21
  %23 = load i32, ptr %8, align 4, !tbaa !10
  %24 = icmp sge i32 %23, 0
  br i1 %24, label %25, label %31

25:                                               ; preds = %22
  %26 = load i32, ptr %8, align 4, !tbaa !10
  %27 = load ptr, ptr %7, align 8, !tbaa !39
  %28 = getelementptr inbounds nuw %struct.CodedBitstreamFragment, ptr %27, i32 0, i32 4
  %29 = load i32, ptr %28, align 8, !tbaa !41
  %30 = icmp sle i32 %26, %29
  br i1 %30, label %32, label %31

31:                                               ; preds = %25, %22
  call void (ptr, i32, ptr, ...) @av_log(ptr noundef null, i32 noundef 0, ptr noundef @.str.1, ptr noundef @.str.21, ptr noundef @.str.3, i32 noundef 809)
  call void @abort() #14
  unreachable

32:                                               ; preds = %25
  br label %33

33:                                               ; preds = %32
  br label %34

34:                                               ; preds = %33
  %35 = load ptr, ptr %7, align 8, !tbaa !39
  %36 = load i32, ptr %8, align 4, !tbaa !10
  %37 = call i32 @cbs_insert_unit(ptr noundef %35, i32 noundef %36)
  store i32 %37, ptr %13, align 4, !tbaa !10
  %38 = load i32, ptr %13, align 4, !tbaa !10
  %39 = icmp slt i32 %38, 0
  br i1 %39, label %40, label %42

40:                                               ; preds = %34
  %41 = load i32, ptr %13, align 4, !tbaa !10
  store i32 %41, ptr %6, align 4
  store i32 1, ptr %14, align 4
  br label %64

42:                                               ; preds = %34
  %43 = load ptr, ptr %11, align 8, !tbaa !12
  %44 = icmp ne ptr %43, null
  br i1 %44, label %45, label %48

45:                                               ; preds = %42
  %46 = load ptr, ptr %11, align 8, !tbaa !12
  %47 = call ptr @av_refstruct_ref(ptr noundef %46)
  store ptr %47, ptr %11, align 8, !tbaa !12
  br label %48

48:                                               ; preds = %45, %42
  %49 = load ptr, ptr %7, align 8, !tbaa !39
  %50 = getelementptr inbounds nuw %struct.CodedBitstreamFragment, ptr %49, i32 0, i32 6
  %51 = load ptr, ptr %50, align 8, !tbaa !45
  %52 = load i32, ptr %8, align 4, !tbaa !10
  %53 = sext i32 %52 to i64
  %54 = getelementptr inbounds %struct.CodedBitstreamUnit, ptr %51, i64 %53
  store ptr %54, ptr %12, align 8, !tbaa !50
  %55 = load i32, ptr %9, align 4, !tbaa !10
  %56 = load ptr, ptr %12, align 8, !tbaa !50
  %57 = getelementptr inbounds nuw %struct.CodedBitstreamUnit, ptr %56, i32 0, i32 0
  store i32 %55, ptr %57, align 8, !tbaa !89
  %58 = load ptr, ptr %10, align 8, !tbaa !12
  %59 = load ptr, ptr %12, align 8, !tbaa !50
  %60 = getelementptr inbounds nuw %struct.CodedBitstreamUnit, ptr %59, i32 0, i32 5
  store ptr %58, ptr %60, align 8, !tbaa !51
  %61 = load ptr, ptr %11, align 8, !tbaa !12
  %62 = load ptr, ptr %12, align 8, !tbaa !50
  %63 = getelementptr inbounds nuw %struct.CodedBitstreamUnit, ptr %62, i32 0, i32 6
  store ptr %61, ptr %63, align 8, !tbaa !123
  store i32 0, ptr %6, align 4
  store i32 1, ptr %14, align 4
  br label %64

64:                                               ; preds = %48, %40
  call void @llvm.lifetime.end.p0(i64 4, ptr %13) #13
  call void @llvm.lifetime.end.p0(i64 8, ptr %12) #13
  %65 = load i32, ptr %6, align 4
  ret i32 %65
}