; Function Attrs: nounwind uwtable
define range(i32 -12, 1) i32 @ff_cbs_insert_unit_content(ptr noundef captures(none) %0, i32 noundef %1, i32 noundef %2, ptr noundef %3, ptr noundef %4) local_unnamed_addr #3 {
  %6 = icmp eq i32 %1, -1
  br i1 %6, label %7, label %10

7:                                                ; preds = %5
  %8 = getelementptr inbounds nuw i8, ptr %0, i64 32
  %9 = load i32, ptr %8, align 8, !tbaa !34
  br label %10

10:                                               ; preds = %5, %7
  %.019 = phi i32 [ %9, %7 ], [ %1, %5 ]
  %11 = icmp sgt i32 %.019, -1
  br i1 %11, label %12, label %15

12:                                               ; preds = %10
  %13 = getelementptr inbounds nuw i8, ptr %0, i64 32
  %14 = load i32, ptr %13, align 8, !tbaa !34
  %.not = icmp sgt i32 %.019, %14
  br i1 %.not, label %15, label %16

15:                                               ; preds = %12, %10
  tail call void (ptr, i32, ptr, ...) @av_log(ptr noundef null, i32 noundef 0, ptr noundef nonnull @.str.1, ptr noundef nonnull @.str.21, ptr noundef nonnull @.str.3, i32 noundef 809) #10
  tail call void @abort() #11
  unreachable

16:                                               ; preds = %12
  %17 = tail call fastcc i32 @cbs_insert_unit(ptr noundef nonnull %0, i32 noundef %.019)
  %18 = icmp slt i32 %17, 0
  br i1 %18, label %29, label %19

19:                                               ; preds = %16
  %.not24 = icmp eq ptr %4, null
  br i1 %.not24, label %22, label %20

20:                                               ; preds = %19
  %21 = tail call ptr @av_refstruct_ref(ptr noundef nonnull %4) #10
  br label %22

22:                                               ; preds = %20, %19
  %.020 = phi ptr [ %21, %20 ], [ null, %19 ]
  %23 = getelementptr inbounds nuw i8, ptr %0, i64 40
  %24 = load ptr, ptr %23, align 8, !tbaa !38
  %25 = zext nneg i32 %.019 to i64
  %26 = getelementptr inbounds nuw %struct.CodedBitstreamUnit, ptr %24, i64 %25
  store i32 %2, ptr %26, align 8, !tbaa !57
  %27 = getelementptr inbounds nuw i8, ptr %26, i64 40
  store ptr %3, ptr %27, align 8, !tbaa !39
  %28 = getelementptr inbounds nuw i8, ptr %26, i64 48
  store ptr %.020, ptr %28, align 8, !tbaa !109
  br label %29

29:                                               ; preds = %16, %22
  ret i32 %17
}